target datalayout = "e-m:e-p270:32:32-p271:32:32-p272:64:64-i64:64-i128:128-f80:128-n8:16:32:64-S128"
target triple = "x86_64-pc-linux-gnu"

%struct.PyHash_FuncDef = type { ptr, ptr, i32, i32 }

@PyHash_Func = internal global %struct.PyHash_FuncDef { ptr @pysiphash, ptr @.str, i32 64, i32 128 }, align 8

; Function Attrs: nounwind uwtable
define dso_local i64 @Py_HashBuffer(ptr noundef %0, i64 noundef %1) #0 {
  %3 = alloca i64, align 8
  %4 = alloca ptr, align 8
  %5 = alloca i64, align 8
  %6 = alloca i64, align 8
  %7 = alloca i32, align 4
  store ptr %0, ptr %4, align 8, !tbaa !17
  store i64 %1, ptr %5, align 8, !tbaa !13
  %8 = load i64, ptr %5, align 8, !tbaa !13
  %9 = icmp eq i64 %8, 0
  br i1 %9, label %10, label %11

10:                                               ; preds = %2
  store i64 0, ptr %3, align 8
  br label %22

11:                                               ; preds = %2
  call void @llvm.lifetime.start.p0(i64 8, ptr %6) #6
  %12 = load ptr, ptr @PyHash_Func, align 8, !tbaa !18
  %13 = load ptr, ptr %4, align 8, !tbaa !17
  %14 = load i64, ptr %5, align 8, !tbaa !13
  %15 = call i64 %12(ptr noundef %13, i64 noundef %14)
  store i64 %15, ptr %6, align 8, !tbaa !13
  %16 = load i64, ptr %6, align 8, !tbaa !13
  %17 = icmp eq i64 %16, -1
  br i1 %17, label %18, label %19

18:                                               ; preds = %11
  store i64 -2, ptr %3, align 8
  store i32 1, ptr %7, align 4
  br label %21

19:                                               ; preds = %11
  %20 = load i64, ptr %6, align 8, !tbaa !13
  store i64 %20, ptr %3, align 8
  store i32 1, ptr %7, align 4
  br label %21

21:                                               ; preds = %19, %18
  call void @llvm.lifetime.end.p0(i64 8, ptr %6) #6
  br label %22

22:                                               ; preds = %21, %10
  %23 = load i64, ptr %3, align 8
  ret i64 %23
}