; Function Attrs: nounwind uwtable
define dso_local range(i64 0, -1) i64 @Py_HashBuffer(ptr noundef %0, i64 noundef %1) local_unnamed_addr #5 {
  %3 = icmp eq i64 %1, 0
  br i1 %3, label %7, label %4

4:                                                ; preds = %2
  %5 = load ptr, ptr @PyHash_Func, align 8, !tbaa !6
  %6 = tail call i64 %5(ptr noundef %0, i64 noundef %1) #9
  %. = tail call i64 @llvm.umin.i64(i64 %6, i64 -2)
  br label %7

7:                                                ; preds = %2, %4
  %.0 = phi i64 [ %., %4 ], [ 0, %2 ]
  ret i64 %.0
}